; ModuleID = 'source-C-CXX/0/1381.cpp'
source_filename = "source-C-CXX/0/1381.cpp"
target datalayout = "e-m:e-p270:32:32-p271:32:32-p272:64:64-i64:64-f80:128-n8:16:32:64-S128"
target triple = "x86_64-pc-linux-gnu"

%"class.std::ios_base::Init" = type { i8 }
%"class.std::basic_istream" = type { i32 (...)**, i64, %"class.std::basic_ios" }
%"class.std::basic_ios" = type { %"class.std::ios_base", %"class.std::basic_ostream"*, i8, i8, %"class.std::basic_streambuf"*, %"class.std::ctype"*, %"class.std::num_put"*, %"class.std::num_get"* }
%"class.std::ios_base" = type { i32 (...)**, i64, i64, i32, i32, i32, %"struct.std::ios_base::_Callback_list"*, %"struct.std::ios_base::_Words", [8 x %"struct.std::ios_base::_Words"], i32, %"struct.std::ios_base::_Words"*, %"class.std::locale" }
%"struct.std::ios_base::_Callback_list" = type { %"struct.std::ios_base::_Callback_list"*, void (i32, %"class.std::ios_base"*, i32)*, i32, i32 }
%"struct.std::ios_base::_Words" = type { i8*, i64 }
%"class.std::locale" = type { %"class.std::locale::_Impl"* }
%"class.std::locale::_Impl" = type { i32, %"class.std::locale::facet"**, i64, %"class.std::locale::facet"**, i8** }
%"class.std::locale::facet" = type <{ i32 (...)**, i32, [4 x i8] }>
%"class.std::basic_ostream" = type { i32 (...)**, %"class.std::basic_ios" }
%"class.std::basic_streambuf" = type { i32 (...)**, i8*, i8*, i8*, i8*, i8*, i8*, %"class.std::locale" }
%"class.std::ctype" = type <{ %"class.std::locale::facet.base", [4 x i8], %struct.__locale_struct*, i8, [7 x i8], i32*, i32*, i16*, i8, [256 x i8], [256 x i8], i8, [6 x i8] }>
%"class.std::locale::facet.base" = type <{ i32 (...)**, i32 }>
%struct.__locale_struct = type { [13 x %struct.__locale_data*], i16*, i32*, i32*, [13 x i8*] }
%struct.__locale_data = type opaque
%"class.std::num_put" = type { %"class.std::locale::facet.base", [4 x i8] }
%"class.std::num_get" = type { %"class.std::locale::facet.base", [4 x i8] }

@_ZStL8__ioinit = internal global %"class.std::ios_base::Init" zeroinitializer, align 1
@__dso_handle = external hidden global i8
@a = dso_local global i32 0, align 4
@n = dso_local global i32 0, align 4
@sum = dso_local local_unnamed_addr global i32 0, align 4
@_ZSt3cin = external global %"class.std::basic_istream", align 8
@_ZSt4cout = external global %"class.std::basic_ostream", align 8
@llvm.global_ctors = appending global [1 x { i32, void ()*, i8* }] [{ i32, void ()*, i8* } { i32 65535, void ()* @_GLOBAL__sub_I_1381.cpp, i8* null }]

declare void @_ZNSt8ios_base4InitC1Ev(%"class.std::ios_base::Init"* nonnull align 1 dereferenceable(1)) unnamed_addr #0

; Function Attrs: nounwind
declare void @_ZNSt8ios_base4InitD1Ev(%"class.std::ios_base::Init"* nonnull align 1 dereferenceable(1)) unnamed_addr #1

; Function Attrs: nofree nounwind
declare i32 @__cxa_atexit(void (i8*)*, i8*, i8*) local_unnamed_addr #2

; Function Attrs: mustprogress nofree nosync nounwind sspstrong uwtable
define dso_local void @_Z1ti(i32 %0) local_unnamed_addr #3 {
  %2 = load i32, i32* @a, align 4, !tbaa !5
  %3 = icmp slt i32 %2, %0
  br i1 %3, label %24, label %4

4:                                                ; preds = %1, %20
  %5 = phi i32 [ %21, %20 ], [ %2, %1 ]
  %6 = phi i32 [ %22, %20 ], [ %0, %1 ]
  %7 = srem i32 %5, %6
  %8 = sdiv i32 %5, %6
  %9 = icmp eq i32 %7, 0
  br i1 %9, label %10, label %20

10:                                               ; preds = %4
  store i32 %8, i32* @a, align 4, !tbaa !5
  %11 = icmp eq i32 %8, 1
  br i1 %11, label %12, label %15

12:                                               ; preds = %10
  %13 = load i32, i32* @sum, align 4, !tbaa !5
  %14 = add nsw i32 %13, 1
  store i32 %14, i32* @sum, align 4, !tbaa !5
  br label %17

15:                                               ; preds = %10
  tail call void @_Z1ti(i32 %6)
  %16 = load i32, i32* @a, align 4, !tbaa !5
  br label %17

17:                                               ; preds = %15, %12
  %18 = phi i32 [ %16, %15 ], [ 1, %12 ]
  %19 = mul nsw i32 %18, %6
  store i32 %19, i32* @a, align 4, !tbaa !5
  br label %20

20:                                               ; preds = %4, %17
  %21 = phi i32 [ %5, %4 ], [ %19, %17 ]
  %22 = add nsw i32 %6, 1
  %23 = icmp slt i32 %6, %21
  br i1 %23, label %4, label %24, !llvm.loop !9

24:                                               ; preds = %20, %1
  ret void
}

; Function Attrs: mustprogress norecurse sspstrong uwtable
define dso_local i32 @main() local_unnamed_addr #4 {
  %1 = tail call nonnull align 8 dereferenceable(16) %"class.std::basic_istream"* @_ZNSirsERi(%"class.std::basic_istream"* nonnull align 8 dereferenceable(16) @_ZSt3cin, i32* nonnull align 4 dereferenceable(4) @n)
  %2 = load i32, i32* @n, align 4, !tbaa !5
  %3 = icmp sgt i32 %2, 0
  br i1 %3, label %4, label %41

4:                                                ; preds = %0, %34
  %5 = phi i32 [ %38, %34 ], [ 0, %0 ]
  store i32 0, i32* @sum, align 4, !tbaa !5
  %6 = tail call nonnull align 8 dereferenceable(16) %"class.std::basic_istream"* @_ZNSirsERi(%"class.std::basic_istream"* nonnull align 8 dereferenceable(16) @_ZSt3cin, i32* nonnull align 4 dereferenceable(4) @a)
  tail call void @_Z1ti(i32 2)
  %7 = load i32, i32* @sum, align 4, !tbaa !5
  %8 = tail call nonnull align 8 dereferenceable(8) %"class.std::basic_ostream"* @_ZNSolsEi(%"class.std::basic_ostream"* nonnull align 8 dereferenceable(8) @_ZSt4cout, i32 %7)
  %9 = bitcast %"class.std::basic_ostream"* %8 to i8**
  %10 = load i8*, i8** %9, align 8, !tbaa !11
  %11 = getelementptr i8, i8* %10, i64 -24
  %12 = bitcast i8* %11 to i64*
  %13 = load i64, i64* %12, align 8
  %14 = bitcast %"class.std::basic_ostream"* %8 to i8*
  %15 = add nsw i64 %13, 240
  %16 = getelementptr inbounds i8, i8* %14, i64 %15
  %17 = bitcast i8* %16 to %"class.std::ctype"**
  %18 = load %"class.std::ctype"*, %"class.std::ctype"** %17, align 8, !tbaa !13
  %19 = icmp eq %"class.std::ctype"* %18, null
  br i1 %19, label %20, label %21

20:                                               ; preds = %4
  tail call void @_ZSt16__throw_bad_castv() #7
  unreachable

21:                                               ; preds = %4
  %22 = getelementptr inbounds %"class.std::ctype", %"class.std::ctype"* %18, i64 0, i32 8
  %23 = load i8, i8* %22, align 8, !tbaa !17
  %24 = icmp eq i8 %23, 0
  br i1 %24, label %28, label %25

25:                                               ; preds = %21
  %26 = getelementptr inbounds %"class.std::ctype", %"class.std::ctype"* %18, i64 0, i32 9, i64 10
  %27 = load i8, i8* %26, align 1, !tbaa !19
  br label %34

28:                                               ; preds = %21
  tail call void @_ZNKSt5ctypeIcE13_M_widen_initEv(%"class.std::ctype"* nonnull align 8 dereferenceable(570) %18)
  %29 = bitcast %"class.std::ctype"* %18 to i8 (%"class.std::ctype"*, i8)***
  %30 = load i8 (%"class.std::ctype"*, i8)**, i8 (%"class.std::ctype"*, i8)*** %29, align 8, !tbaa !11
  %31 = getelementptr inbounds i8 (%"class.std::ctype"*, i8)*, i8 (%"class.std::ctype"*, i8)** %30, i64 6
  %32 = load i8 (%"class.std::ctype"*, i8)*, i8 (%"class.std::ctype"*, i8)** %31, align 8
  %33 = tail call signext i8 %32(%"class.std::ctype"* nonnull align 8 dereferenceable(570) %18, i8 signext 10)
  br label %34

34:                                               ; preds = %25, %28
  %35 = phi i8 [ %27, %25 ], [ %33, %28 ]
  %36 = tail call nonnull align 8 dereferenceable(8) %"class.std::basic_ostream"* @_ZNSo3putEc(%"class.std::basic_ostream"* nonnull align 8 dereferenceable(8) %8, i8 signext %35)
  %37 = tail call nonnull align 8 dereferenceable(8) %"class.std::basic_ostream"* @_ZNSo5flushEv(%"class.std::basic_ostream"* nonnull align 8 dereferenceable(8) %36)
  %38 = add nuw nsw i32 %5, 1
  %39 = load i32, i32* @n, align 4, !tbaa !5
  %40 = icmp slt i32 %38, %39
  br i1 %40, label %4, label %41, !llvm.loop !20

41:                                               ; preds = %34, %0
  ret i32 0
}

declare nonnull align 8 dereferenceable(16) %"class.std::basic_istream"* @_ZNSirsERi(%"class.std::basic_istream"* nonnull align 8 dereferenceable(16), i32* nonnull align 4 dereferenceable(4)) local_unnamed_addr #0

declare nonnull align 8 dereferenceable(8) %"class.std::basic_ostream"* @_ZNSolsEi(%"class.std::basic_ostream"* nonnull align 8 dereferenceable(8), i32) local_unnamed_addr #0

declare nonnull align 8 dereferenceable(8) %"class.std::basic_ostream"* @_ZNSo3putEc(%"class.std::basic_ostream"* nonnull align 8 dereferenceable(8), i8 signext) local_unnamed_addr #0

declare nonnull align 8 dereferenceable(8) %"class.std::basic_ostream"* @_ZNSo5flushEv(%"class.std::basic_ostream"* nonnull align 8 dereferenceable(8)) local_unnamed_addr #0

; Function Attrs: noreturn
declare void @_ZSt16__throw_bad_castv() local_unnamed_addr #5

declare void @_ZNKSt5ctypeIcE13_M_widen_initEv(%"class.std::ctype"* nonnull align 8 dereferenceable(570)) local_unnamed_addr #0

; Function Attrs: sspstrong uwtable
define internal void @_GLOBAL__sub_I_1381.cpp() #6 section ".text.startup" {
  tail call void @_ZNSt8ios_base4InitC1Ev(%"class.std::ios_base::Init"* nonnull align 1 dereferenceable(1) @_ZStL8__ioinit)
  %1 = tail call i32 @__cxa_atexit(void (i8*)* bitcast (void (%"class.std::ios_base::Init"*)* @_ZNSt8ios_base4InitD1Ev to void (i8*)*), i8* getelementptr inbounds (%"class.std::ios_base::Init", %"class.std::ios_base::Init"* @_ZStL8__ioinit, i64 0, i32 0), i8* nonnull @__dso_handle) #8
  ret void
}


!llvm.module.flags = !{!0, !1, !2, !3}
!llvm.ident = !{!4}

!0 = !{i32 1, !"wchar_size", i32 4}
!1 = !{i32 7, !"PIC Level", i32 2}
!2 = !{i32 7, !"PIE Level", i32 2}
!3 = !{i32 7, !"uwtable", i32 1}
!4 = !{!"clang version 13.0.0"}
!5 = !{!6, !6, i64 0}
!6 = !{!"int", !7, i64 0}
!7 = !{!"omnipotent char", !8, i64 0}
!8 = !{!"Simple C++ TBAA"}
!9 = distinct !{!9, !10}
!10 = !{!"llvm.loop.mustprogress"}
!11 = !{!12, !12, i64 0}
!12 = !{!"vtable pointer", !8, i64 0}
!13 = !{!14, !15, i64 240}
!14 = !{!"_ZTSSt9basic_iosIcSt11char_traitsIcEE", !15, i64 216, !7, i64 224, !16, i64 225, !15, i64 232, !15, i64 240, !15, i64 248, !15, i64 256}
!15 = !{!"any pointer", !7, i64 0}
!16 = !{!"bool", !7, i64 0}
!17 = !{!18, !7, i64 56}
!18 = !{!"_ZTSSt5ctypeIcE", !15, i64 16, !16, i64 24, !15, i64 32, !15, i64 40, !15, i64 48, !7, i64 56, !7, i64 57, !7, i64 313, !7, i64 569}
!19 = !{!7, !7, i64 0}
!20 = distinct !{!20, !10}
